; Function Attrs: mustprogress uwtable
define noundef zeroext i1 @_ZNK8proxygen15HTTPTransaction18isExpectingIngressEv(ptr noundef nonnull align 8 dereferenceable(912) %this) local_unnamed_addr #3 align 2 {
entry:
  %setIngressTimeoutAfterEom_ = getelementptr inbounds i8, ptr %this, i64 792
  %0 = load i8, ptr %setIngressTimeoutAfterEom_, align 8
  %1 = and i8 %0, 1
  %tobool.not = icmp eq i8 %1, 0
  %direction_.i = getelementptr inbounds i8, ptr %this, i64 240
  %2 = load i8, ptr %direction_.i, align 8
  %cmp.i = icmp eq i8 %2, 0
  %or.cond = select i1 %tobool.not, i1 true, i1 %cmp.i
  %egressState_.i2.phi.trans.insert = getelementptr inbounds i8, ptr %this, i64 241
  %.pre = load i8, ptr %egressState_.i2.phi.trans.insert, align 1
  %cmp.i1 = icmp eq i8 %.pre, 9
  %spec.select3 = or i1 %or.cond, %cmp.i1
  %cmp.not.i = icmp eq i8 %.pre, 9
  br i1 %cmp.not.i, label %lor.rhs4, label %land.lhs.true.i

land.lhs.true.i:                                  ; preds = %entry
  %useFlowControl_.i = getelementptr inbounds i8, ptr %this, i64 728
  %bf.load.i = load i32, ptr %useFlowControl_.i, align 8
  %3 = and i32 %bf.load.i, 32
  %bf.cast.not.i = icmp eq i32 %3, 0
  br i1 %bf.cast.not.i, label %lor.rhs4, label %_ZNK8proxygen15HTTPTransaction23isExpectingWindowUpdateEv.exit

_ZNK8proxygen15HTTPTransaction23isExpectingWindowUpdateEv.exit: ; preds = %land.lhs.true.i
  %sendWindow_.i = getelementptr inbounds i8, ptr %this, i64 352
  %call.i = tail call noundef i32 @_ZNK8proxygen6Window7getSizeEv(ptr noundef nonnull align 4 dereferenceable(8) %sendWindow_.i)
  %cmp2.i = icmp slt i32 %call.i, 1
  br i1 %cmp2.i, label %lor.end7, label %lor.rhs4

lor.rhs4:                                         ; preds = %entry, %land.lhs.true.i, %_ZNK8proxygen15HTTPTransaction23isExpectingWindowUpdateEv.exit
  %ingressPaused_ = getelementptr inbounds i8, ptr %this, i64 728
  %bf.load = load i32, ptr %ingressPaused_, align 8
  %4 = and i32 %bf.load, 1
  %bf.cast.not = icmp eq i32 %4, 0
  br i1 %bf.cast.not, label %land.lhs.true, label %lor.end7

land.lhs.true:                                    ; preds = %lor.rhs4
  %ingressState_.i.i = getelementptr inbounds i8, ptr %this, i64 242
  %5 = load i8, ptr %ingressState_.i.i, align 2
  %6 = add i8 %5, -11
  %spec.select.i = icmp ult i8 %6, -2
  %spec.select = select i1 %spec.select.i, i1 %spec.select3, i1 false
  br label %lor.end7

lor.end7:                                         ; preds = %land.lhs.true, %lor.rhs4, %_ZNK8proxygen15HTTPTransaction23isExpectingWindowUpdateEv.exit
  %7 = phi i1 [ true, %_ZNK8proxygen15HTTPTransaction23isExpectingWindowUpdateEv.exit ], [ false, %lor.rhs4 ], [ %spec.select, %land.lhs.true ]
  ret i1 %7
}